target datalayout = "e-m:e-p270:32:32-p271:32:32-p272:64:64-i64:64-i128:128-f80:128-n8:16:32:64-S128"
target triple = "x86_64-pc-linux-gnu"

%"struct.faiss::InvertedLists.base" = type <{ ptr, i64, i64, i8 }>
%"struct.faiss::ReadOnlyInvertedLists.base" = type { %"struct.faiss::InvertedLists.base" }
%"class.std::vector.25" = type { %"struct.std::_Vector_base.26" }
%"struct.std::_Vector_base.26" = type { %"struct.std::_Vector_base<const faiss::InvertedLists *, std::allocator<const faiss::InvertedLists *>>::_Vector_impl" }
%"struct.std::_Vector_base<const faiss::InvertedLists *, std::allocator<const faiss::InvertedLists *>>::_Vector_impl" = type { %"struct.std::_Vector_base<const faiss::InvertedLists *, std::allocator<const faiss::InvertedLists *>>::_Vector_impl_data" }
%"struct.std::_Vector_base<const faiss::InvertedLists *, std::allocator<const faiss::InvertedLists *>>::_Vector_impl_data" = type { ptr, ptr, ptr }
%"class.std::vector" = type { %"struct.std::_Vector_base" }
%"struct.std::_Vector_base" = type { %"struct.std::_Vector_base<long, std::allocator<long>>::_Vector_impl" }
%"struct.std::_Vector_base<long, std::allocator<long>>::_Vector_impl" = type { %"struct.std::_Vector_base<long, std::allocator<long>>::_Vector_impl_data" }
%"struct.std::_Vector_base<long, std::allocator<long>>::_Vector_impl_data" = type { ptr, ptr, ptr }
%"struct.faiss::VStackInvertedLists" = type { %"struct.faiss::ReadOnlyInvertedLists.base", %"class.std::vector.25", %"class.std::vector" }

; Function Attrs: mustprogress nounwind uwtable
define linkonce_odr noundef nonnull align 8 dereferenceable(8) ptr @_ZNKSt6vectorIPKN5faiss13InvertedListsESaIS3_EEixEm(ptr noundef nonnull align 8 dereferenceable(24) %0, i64 noundef %1) #1 comdat align 2 {
  %3 = alloca ptr, align 8
  %4 = alloca i64, align 8
  store ptr %0, ptr %3, align 8, !tbaa !249
  store i64 %1, ptr %4, align 8, !tbaa !11
  %5 = load ptr, ptr %3, align 8
  %6 = getelementptr inbounds nuw %"struct.std::_Vector_base.26", ptr %5, i32 0, i32 0
  %7 = getelementptr inbounds nuw %"struct.std::_Vector_base<const faiss::InvertedLists *, std::allocator<const faiss::InvertedLists *>>::_Vector_impl_data", ptr %6, i32 0, i32 0
  %8 = load ptr, ptr %7, align 8, !tbaa !254
  %9 = load i64, ptr %4, align 8, !tbaa !11
  %10 = getelementptr inbounds nuw ptr, ptr %8, i64 %9
  ret ptr %10
}

; Function Attrs: mustprogress nounwind uwtable
define linkonce_odr noundef nonnull align 8 dereferenceable(8) ptr @_ZNKSt6vectorIlSaIlEEixEm(ptr noundef nonnull align 8 dereferenceable(24) %0, i64 noundef %1) #1 comdat align 2 {
  %3 = alloca ptr, align 8
  %4 = alloca i64, align 8
  store ptr %0, ptr %3, align 8, !tbaa !86
  store i64 %1, ptr %4, align 8, !tbaa !11
  %5 = load ptr, ptr %3, align 8
  %6 = getelementptr inbounds nuw %"struct.std::_Vector_base", ptr %5, i32 0, i32 0
  %7 = getelementptr inbounds nuw %"struct.std::_Vector_base<long, std::allocator<long>>::_Vector_impl_data", ptr %6, i32 0, i32 0
  %8 = load ptr, ptr %7, align 8, !tbaa !90
  %9 = load i64, ptr %4, align 8, !tbaa !11
  %10 = getelementptr inbounds nuw i64, ptr %8, i64 %9
  ret ptr %10
}

; Function Attrs: mustprogress uwtable
define void @_ZNK5faiss19VStackInvertedLists13release_codesEmPKh(ptr noundef nonnull align 8 dereferenceable(80) %0, i64 noundef %1, ptr noundef %2) unnamed_addr #2 align 2 {
  %4 = alloca ptr, align 8
  %5 = alloca i64, align 8
  %6 = alloca ptr, align 8
  %7 = alloca i32, align 4
  store ptr %0, ptr %4, align 8, !tbaa !49
  store i64 %1, ptr %5, align 8, !tbaa !11
  store ptr %2, ptr %6, align 8, !tbaa !13
  %8 = load ptr, ptr %4, align 8
  call void @llvm.lifetime.start.p0(i64 4, ptr %7) #6
  %9 = load i64, ptr %5, align 8, !tbaa !11
  %10 = call noundef i32 @_ZN5faiss12_GLOBAL__N_117translate_list_noEPKNS_19VStackInvertedListsEl(ptr noundef %8, i64 noundef %9)
  store i32 %10, ptr %7, align 4, !tbaa !22
  %11 = getelementptr inbounds nuw %"struct.faiss::VStackInvertedLists", ptr %8, i32 0, i32 2
  %12 = load i32, ptr %7, align 4, !tbaa !22
  %13 = sext i32 %12 to i64
  %14 = call noundef nonnull align 8 dereferenceable(8) ptr @_ZNKSt6vectorIlSaIlEEixEm(ptr noundef nonnull align 8 dereferenceable(24) %11, i64 noundef %13) #6
  %15 = load i64, ptr %14, align 8, !tbaa !11
  %16 = load i64, ptr %5, align 8, !tbaa !11
  %17 = sub i64 %16, %15
  store i64 %17, ptr %5, align 8, !tbaa !11
  %18 = getelementptr inbounds nuw %"struct.faiss::VStackInvertedLists", ptr %8, i32 0, i32 1
  %19 = load i32, ptr %7, align 4, !tbaa !22
  %20 = sext i32 %19 to i64
  %21 = call noundef nonnull align 8 dereferenceable(8) ptr @_ZNKSt6vectorIPKN5faiss13InvertedListsESaIS3_EEixEm(ptr noundef nonnull align 8 dereferenceable(24) %18, i64 noundef %20) #6
  %22 = load ptr, ptr %21, align 8, !tbaa !9
  %23 = load i64, ptr %5, align 8, !tbaa !11
  %24 = load ptr, ptr %6, align 8, !tbaa !13
  %25 = load ptr, ptr %22, align 8, !tbaa !17
  %26 = getelementptr inbounds ptr, ptr %25, i64 5
  %27 = load ptr, ptr %26, align 8
  call void %27(ptr noundef nonnull align 8 dereferenceable(25) %22, i64 noundef %23, ptr noundef %24)
  call void @llvm.lifetime.end.p0(i64 4, ptr %7) #6
  ret void
}